; Function Attrs: mustprogress uwtable
define dso_local ptr @_ZN4absl13time_internal4cctz9time_zone4Impl3UTCEv() local_unnamed_addr #0 align 2 personality ptr @__gxx_personality_v0 {
  %1 = load atomic i8, ptr @_ZGVZN4absl13time_internal4cctz9time_zone4Impl7UTCImplEvE8utc_impl acquire, align 8
  %2 = icmp eq i8 %1, 0
  br i1 %2, label %3, label %_ZN4absl13time_internal4cctz9time_zone4Impl7UTCImplEv.exit, !prof !4

3:                                                ; preds = %0
  %4 = tail call i32 @__cxa_guard_acquire(ptr nonnull @_ZGVZN4absl13time_internal4cctz9time_zone4Impl7UTCImplEvE8utc_impl) #16
  %.not.i = icmp eq i32 %4, 0
  br i1 %.not.i, label %_ZN4absl13time_internal4cctz9time_zone4Impl7UTCImplEv.exit, label %5

5:                                                ; preds = %3
  %6 = invoke noalias noundef nonnull dereferenceable(40) ptr @_Znwm(i64 noundef 40) #17
          to label %7 unwind label %9

7:                                                ; preds = %5
  invoke void @_ZN4absl13time_internal4cctz9time_zone4ImplC2Ev(ptr noundef nonnull align 8 dereferenceable(40) %6)
          to label %8 unwind label %11

8:                                                ; preds = %7
  store ptr %6, ptr @_ZZN4absl13time_internal4cctz9time_zone4Impl7UTCImplEvE8utc_impl, align 8, !tbaa !5
  tail call void @__cxa_guard_release(ptr nonnull @_ZGVZN4absl13time_internal4cctz9time_zone4Impl7UTCImplEvE8utc_impl) #16
  br label %_ZN4absl13time_internal4cctz9time_zone4Impl7UTCImplEv.exit

9:                                                ; preds = %5
  %10 = landingpad { ptr, i32 }
          cleanup
  br label %13

11:                                               ; preds = %7
  %12 = landingpad { ptr, i32 }
          cleanup
  tail call void @_ZdlPvm(ptr noundef nonnull %6, i64 noundef 40) #18
  br label %13

13:                                               ; preds = %11, %9
  %.pn.i = phi { ptr, i32 } [ %12, %11 ], [ %10, %9 ]
  tail call void @__cxa_guard_abort(ptr nonnull @_ZGVZN4absl13time_internal4cctz9time_zone4Impl7UTCImplEvE8utc_impl) #16
  resume { ptr, i32 } %.pn.i

_ZN4absl13time_internal4cctz9time_zone4Impl7UTCImplEv.exit: ; preds = %0, %3, %8
  %14 = load ptr, ptr @_ZZN4absl13time_internal4cctz9time_zone4Impl7UTCImplEvE8utc_impl, align 8, !tbaa !5
  ret ptr %14
}